; Function Attrs: nounwind uwtable
define dso_local noundef ptr @SlabRealloc(ptr noundef returned %0, i64 noundef %1, i32 noundef %2) local_unnamed_addr #0 {
  %4 = getelementptr inbounds i8, ptr %0, i64 -8
  %5 = load i64, ptr %4, align 8
  %6 = lshr i64 %5, 34
  %7 = and i64 %6, 1073741822
  %8 = sub nsw i64 0, %7
  %9 = getelementptr inbounds i8, ptr %4, i64 %8
  %10 = load ptr, ptr %9, align 8
  %.not11 = icmp eq ptr %10, null
  br i1 %.not11, label %14, label %11

11:                                               ; preds = %3
  %12 = load i32, ptr %10, align 4
  %13 = icmp eq i32 %12, 475
  br i1 %13, label %17, label %14

14:                                               ; preds = %11, %3
  %15 = tail call zeroext i1 @errstart_cold(i32 noundef 21, ptr noundef null) #12
  tail call void @llvm.assume(i1 %15)
  %16 = tail call i32 (ptr, ...) @errmsg_internal(ptr noundef nonnull @.str.4, ptr noundef nonnull %4) #13
  tail call void @errfinish(ptr noundef nonnull @.str.1, i32 noundef 847, ptr noundef nonnull @__func__.SlabRealloc) #13
  unreachable

17:                                               ; preds = %11
  %18 = getelementptr inbounds nuw i8, ptr %10, i64 80
  %19 = load i32, ptr %18, align 8
  %20 = zext i32 %19 to i64
  %21 = icmp eq i64 %1, %20
  br i1 %21, label %22, label %23

22:                                               ; preds = %17
  ret ptr %0

23:                                               ; preds = %17
  %24 = tail call zeroext i1 @errstart_cold(i32 noundef 21, ptr noundef null) #12
  tail call void @llvm.assume(i1 %24)
  %25 = tail call i32 (ptr, ...) @errmsg_internal(ptr noundef nonnull @.str.5) #13
  tail call void @errfinish(ptr noundef nonnull @.str.1, i32 noundef 854, ptr noundef nonnull @__func__.SlabRealloc) #13
  unreachable
}